(dp0
S'province'
p1
(lp2
S'Guangzhou'
p3
aS'Shanghai'
p4
aS'Beijing'
p5
aS'Shenzhen'
p6
asS'country'
p7
S'China'
p8
sS'university'
p9
(dp10
S'num'
p11
I30000
sS'name'
p12
S'Xidian university'
p13
sS'location'
p14
S'Shannxi'
p15
ssS'year'
p16
I68
s.